; Function Attrs: nounwind uwtable
define internal noundef i32 @hash_init(ptr readnone captures(none) %0, i64 %1) #0 {
  %3 = load i32, ptr @pmix_class_init_epoch, align 4, !tbaa !3
  %4 = load i32, ptr getelementptr inbounds nuw (i8, ptr @pmix_list_t_class, i64 32), align 8, !tbaa !7
  %.not = icmp eq i32 %3, %4
  br i1 %.not, label %6, label %5

5:                                                ; preds = %2
  tail call void @pmix_class_initialize(ptr noundef nonnull @pmix_list_t_class) #15
  br label %6

6:                                                ; preds = %5, %2
  store ptr @pmix_list_t_class, ptr getelementptr inbounds nuw (i8, ptr @pmix_mca_gds_hash_component, i64 264), align 8, !tbaa !13
  store i32 1, ptr getelementptr inbounds nuw (i8, ptr @pmix_mca_gds_hash_component, i64 272), align 8, !tbaa !16
  tail call void @llvm.memset.p0.i64(ptr noundef nonnull align 8 dereferenceable(64) getelementptr inbounds nuw (i8, ptr @pmix_mca_gds_hash_component, i64 280), i8 0, i64 64, i1 false)
  %7 = load ptr, ptr getelementptr inbounds nuw (i8, ptr @pmix_list_t_class, i64 40), align 8, !tbaa !17
  %8 = load ptr, ptr %7, align 8, !tbaa !18
  %.not6.i = icmp eq ptr %8, null
  br i1 %.not6.i, label %pmix_obj_run_constructors.exit, label %.lr.ph.i

.lr.ph.i:                                         ; preds = %6, %.lr.ph.i
  %9 = phi ptr [ %11, %.lr.ph.i ], [ %8, %6 ]
  %.07.i = phi ptr [ %10, %.lr.ph.i ], [ %7, %6 ]
  tail call void %9(ptr noundef nonnull getelementptr inbounds nuw (i8, ptr @pmix_mca_gds_hash_component, i64 224)) #15
  %10 = getelementptr inbounds nuw i8, ptr %.07.i, i64 8
  %11 = load ptr, ptr %10, align 8, !tbaa !18
  %.not.i = icmp eq ptr %11, null
  br i1 %.not.i, label %pmix_obj_run_constructors.exit, label %.lr.ph.i, !llvm.loop !19

pmix_obj_run_constructors.exit:                   ; preds = %.lr.ph.i, %6
  %12 = load i32, ptr @pmix_class_init_epoch, align 4, !tbaa !3
  %13 = load i32, ptr getelementptr inbounds nuw (i8, ptr @pmix_list_t_class, i64 32), align 8, !tbaa !7
  %.not1 = icmp eq i32 %12, %13
  br i1 %.not1, label %15, label %14

14:                                               ; preds = %pmix_obj_run_constructors.exit
  tail call void @pmix_class_initialize(ptr noundef nonnull @pmix_list_t_class) #15
  br label %15

15:                                               ; preds = %14, %pmix_obj_run_constructors.exit
  store ptr @pmix_list_t_class, ptr getelementptr inbounds nuw (i8, ptr @pmix_mca_gds_hash_component, i64 536), align 8, !tbaa !13
  store i32 1, ptr getelementptr inbounds nuw (i8, ptr @pmix_mca_gds_hash_component, i64 544), align 8, !tbaa !16
  tail call void @llvm.memset.p0.i64(ptr noundef nonnull align 8 dereferenceable(64) getelementptr inbounds nuw (i8, ptr @pmix_mca_gds_hash_component, i64 552), i8 0, i64 64, i1 false)
  %16 = load ptr, ptr getelementptr inbounds nuw (i8, ptr @pmix_list_t_class, i64 40), align 8, !tbaa !17
  %17 = load ptr, ptr %16, align 8, !tbaa !18
  %.not6.i2 = icmp eq ptr %17, null
  br i1 %.not6.i2, label %pmix_obj_run_constructors.exit6, label %.lr.ph.i3

.lr.ph.i3:                                        ; preds = %15, %.lr.ph.i3
  %18 = phi ptr [ %20, %.lr.ph.i3 ], [ %17, %15 ]
  %.07.i4 = phi ptr [ %19, %.lr.ph.i3 ], [ %16, %15 ]
  tail call void %18(ptr noundef nonnull getelementptr inbounds nuw (i8, ptr @pmix_mca_gds_hash_component, i64 496)) #15
  %19 = getelementptr inbounds nuw i8, ptr %.07.i4, i64 8
  %20 = load ptr, ptr %19, align 8, !tbaa !18
  %.not.i5 = icmp eq ptr %20, null
  br i1 %.not.i5, label %pmix_obj_run_constructors.exit6, label %.lr.ph.i3, !llvm.loop !19

pmix_obj_run_constructors.exit6:                  ; preds = %.lr.ph.i3, %15
  ret i32 0
}